; Function Attrs: mustprogress nounwind uwtable
define hidden void @_ZN20ParallelScavengeHeap31trace_actual_reserved_page_sizeEm13ReservedSpace(ptr nocapture noundef nonnull readnone align 8 dereferenceable(264) %0, i64 noundef %1, ptr nocapture noundef readonly byval(%class.ReservedSpace) align 8 %2) local_unnamed_addr #0 align 2 {
  %4 = load volatile ptr, ptr getelementptr inbounds (i8, ptr @_ZN16LogTagSetMappingILN6LogTag4typeE108ELS1_0ELS1_0ELS1_0ELS1_0ELS1_0EE7_tagsetE, i64 64), align 8
  %.not = icmp eq ptr %4, null
  br i1 %.not, label %12, label %5

5:                                                ; preds = %3
  %6 = getelementptr inbounds i8, ptr %2, i64 32
  %7 = load i64, ptr %6, align 8
  %8 = load i64, ptr @MinHeapSize, align 8
  %9 = load ptr, ptr %2, align 8
  %10 = getelementptr inbounds i8, ptr %2, i64 8
  %11 = load i64, ptr %10, align 8
  tail call void @_ZN2os16trace_page_sizesEPKcmmS1_mm(ptr noundef nonnull @.str.23, i64 noundef %8, i64 noundef %1, ptr noundef %9, i64 noundef %11, i64 noundef %7) #15
  br label %12

12:                                               ; preds = %5, %3
  ret void
}